target datalayout = "e-m:e-p270:32:32-p271:32:32-p272:64:64-i64:64-i128:128-f80:128-n8:16:32:64-S128"
target triple = "x86_64-pc-linux-gnu"

; Function Attrs: nounwind uwtable
define internal i32 @Abc_Base2Log(i32 noundef %0) #0 {
  %2 = alloca i32, align 4
  %3 = alloca i32, align 4
  %4 = alloca i32, align 4
  store i32 %0, ptr %3, align 4
  %5 = load i32, ptr %3, align 4
  %6 = icmp ult i32 %5, 2
  br i1 %6, label %7, label %9

7:                                                ; preds = %1
  %8 = load i32, ptr %3, align 4
  store i32 %8, ptr %2, align 4
  br label %23

9:                                                ; preds = %1
  store i32 0, ptr %4, align 4
  %10 = load i32, ptr %3, align 4
  %11 = add i32 %10, -1
  store i32 %11, ptr %3, align 4
  br label %12

12:                                               ; preds = %16, %9
  %13 = load i32, ptr %3, align 4
  %14 = icmp ne i32 %13, 0
  br i1 %14, label %15, label %21

15:                                               ; preds = %12
  br label %16

16:                                               ; preds = %15
  %17 = load i32, ptr %3, align 4
  %18 = lshr i32 %17, 1
  store i32 %18, ptr %3, align 4
  %19 = load i32, ptr %4, align 4
  %20 = add nsw i32 %19, 1
  store i32 %20, ptr %4, align 4
  br label %12, !llvm.loop !23

21:                                               ; preds = %12
  %22 = load i32, ptr %4, align 4
  store i32 %22, ptr %2, align 4
  br label %23

23:                                               ; preds = %21, %7
  %24 = load i32, ptr %2, align 4
  ret i32 %24
}

; Function Attrs: nounwind uwtable
define i32 @Abc_ResCost(ptr noundef %0, ptr noundef %1, i32 noundef %2, ptr noundef %3, ptr noundef %4) #0 {
  %6 = alloca ptr, align 8
  %7 = alloca ptr, align 8
  %8 = alloca i32, align 4
  %9 = alloca ptr, align 8
  %10 = alloca ptr, align 8
  %11 = alloca i32, align 4
  %12 = alloca i32, align 4
  store ptr %0, ptr %6, align 8
  store ptr %1, ptr %7, align 8
  store i32 %2, ptr %8, align 4
  store ptr %3, ptr %9, align 8
  store ptr %4, ptr %10, align 8
  %13 = load ptr, ptr %6, align 8
  %14 = load ptr, ptr %7, align 8
  %15 = load i32, ptr %8, align 4
  %16 = load ptr, ptr %10, align 8
  %17 = call i32 @Abc_ResCofCount(ptr noundef %13, ptr noundef %14, i32 noundef %15, ptr noundef %16)
  store i32 %17, ptr %11, align 4
  %18 = load i32, ptr %11, align 4
  %19 = call i32 @Abc_Base2Log(i32 noundef %18)
  store i32 %19, ptr %12, align 4
  %20 = load ptr, ptr %9, align 8
  %21 = icmp ne ptr %20, null
  br i1 %21, label %22, label %25

22:                                               ; preds = %5
  %23 = load i32, ptr %11, align 4
  %24 = load ptr, ptr %9, align 8
  store i32 %23, ptr %24, align 4
  br label %25

25:                                               ; preds = %22, %5
  %26 = load i32, ptr %12, align 4
  %27 = mul nsw i32 10000, %26
  %28 = load i32, ptr %11, align 4
  %29 = load i32, ptr %12, align 4
  %30 = sub nsw i32 %29, 1
  %31 = shl i32 1, %30
  %32 = sub nsw i32 %28, %31
  %33 = load i32, ptr %11, align 4
  %34 = load i32, ptr %12, align 4
  %35 = sub nsw i32 %34, 1
  %36 = shl i32 1, %35
  %37 = sub nsw i32 %33, %36
  %38 = mul nsw i32 %32, %37
  %39 = add nsw i32 %27, %38
  ret i32 %39
}

; Function Attrs: nounwind uwtable
define i32 @Abc_ResMigrate(ptr noundef %0, ptr noundef %1, i32 noundef %2, ptr noundef %3, i32 noundef %4, i32 noundef %5) #0 {
  %7 = alloca ptr, align 8
  %8 = alloca ptr, align 8
  %9 = alloca i32, align 4
  %10 = alloca ptr, align 8
  %11 = alloca i32, align 4
  %12 = alloca i32, align 4
  %13 = alloca [2 x i32], align 4
  %14 = alloca i32, align 4
  %15 = alloca i32, align 4
  %16 = alloca i32, align 4
  %17 = alloca i32, align 4
  %18 = alloca i32, align 4
  store ptr %0, ptr %7, align 8
  store ptr %1, ptr %8, align 8
  store i32 %2, ptr %9, align 4
  store ptr %3, ptr %10, align 8
  store i32 %4, ptr %11, align 4
  store i32 %5, ptr %12, align 4
  %19 = getelementptr inbounds [2 x i32], ptr %13, i64 0, i64 0
  %20 = load ptr, ptr %10, align 8
  %21 = load i32, ptr %11, align 4
  %22 = sext i32 %21 to i64
  %23 = getelementptr inbounds i32, ptr %20, i64 %22
  %24 = load i32, ptr %23, align 4
  store i32 %24, ptr %19, align 4
  %25 = getelementptr inbounds i32, ptr %19, i64 1
  %26 = load ptr, ptr %10, align 8
  %27 = load i32, ptr %12, align 4
  %28 = sext i32 %27 to i64
  %29 = getelementptr inbounds i32, ptr %26, i64 %28
  %30 = load i32, ptr %29, align 4
  store i32 %30, ptr %25, align 4
  store i32 0, ptr %18, align 4
  %31 = load ptr, ptr %7, align 8
  %32 = load ptr, ptr %8, align 8
  %33 = load ptr, ptr %10, align 8
  %34 = load i32, ptr %11, align 4
  %35 = sext i32 %34 to i64
  %36 = getelementptr inbounds i32, ptr %33, i64 %35
  %37 = load i32, ptr %36, align 4
  %38 = call i32 @Abc_ResCost(ptr noundef %31, ptr noundef %32, i32 noundef %37, ptr noundef null, ptr noundef null)
  %39 = load ptr, ptr %7, align 8
  %40 = load ptr, ptr %8, align 8
  %41 = load ptr, ptr %10, align 8
  %42 = load i32, ptr %12, align 4
  %43 = sext i32 %42 to i64
  %44 = getelementptr inbounds i32, ptr %41, i64 %43
  %45 = load i32, ptr %44, align 4
  %46 = call i32 @Abc_ResCost(ptr noundef %39, ptr noundef %40, i32 noundef %45, ptr noundef null, ptr noundef null)
  %47 = add nsw i32 %38, %46
  store i32 %47, ptr %17, align 4
  store i32 0, ptr %14, align 4
  br label %48

48:                                               ; preds = %168, %6
  %49 = load i32, ptr %14, align 4
  %50 = load i32, ptr %9, align 4
  %51 = icmp slt i32 %49, %50
  br i1 %51, label %52, label %171

52:                                               ; preds = %48
  %53 = load ptr, ptr %10, align 8
  %54 = load i32, ptr %11, align 4
  %55 = sext i32 %54 to i64
  %56 = getelementptr inbounds i32, ptr %53, i64 %55
  %57 = load i32, ptr %56, align 4
  %58 = load i32, ptr %14, align 4
  %59 = shl i32 1, %58
  %60 = and i32 %57, %59
  %61 = icmp ne i32 %60, 0
  br i1 %61, label %62, label %167

62:                                               ; preds = %52
  store i32 0, ptr %15, align 4
  br label %63

63:                                               ; preds = %163, %62
  %64 = load i32, ptr %15, align 4
  %65 = load i32, ptr %9, align 4
  %66 = icmp slt i32 %64, %65
  br i1 %66, label %67, label %166

67:                                               ; preds = %63
  %68 = load ptr, ptr %10, align 8
  %69 = load i32, ptr %12, align 4
  %70 = sext i32 %69 to i64
  %71 = getelementptr inbounds i32, ptr %68, i64 %70
  %72 = load i32, ptr %71, align 4
  %73 = load i32, ptr %15, align 4
  %74 = shl i32 1, %73
  %75 = and i32 %72, %74
  %76 = icmp ne i32 %75, 0
  br i1 %76, label %77, label %162

77:                                               ; preds = %67
  %78 = load i32, ptr %14, align 4
  %79 = load i32, ptr %15, align 4
  %80 = icmp eq i32 %78, %79
  br i1 %80, label %81, label %82

81:                                               ; preds = %77
  br label %163

82:                                               ; preds = %77
  %83 = load i32, ptr %14, align 4
  %84 = shl i32 1, %83
  %85 = load i32, ptr %15, align 4
  %86 = shl i32 1, %85
  %87 = or i32 %84, %86
  %88 = load ptr, ptr %10, align 8
  %89 = load i32, ptr %11, align 4
  %90 = sext i32 %89 to i64
  %91 = getelementptr inbounds i32, ptr %88, i64 %90
  %92 = load i32, ptr %91, align 4
  %93 = xor i32 %92, %87
  store i32 %93, ptr %91, align 4
  %94 = load i32, ptr %14, align 4
  %95 = shl i32 1, %94
  %96 = load i32, ptr %15, align 4
  %97 = shl i32 1, %96
  %98 = or i32 %95, %97
  %99 = load ptr, ptr %10, align 8
  %100 = load i32, ptr %12, align 4
  %101 = sext i32 %100 to i64
  %102 = getelementptr inbounds i32, ptr %99, i64 %101
  %103 = load i32, ptr %102, align 4
  %104 = xor i32 %103, %98
  store i32 %104, ptr %102, align 4
  %105 = load ptr, ptr %7, align 8
  %106 = load ptr, ptr %8, align 8
  %107 = load ptr, ptr %10, align 8
  %108 = load i32, ptr %11, align 4
  %109 = sext i32 %108 to i64
  %110 = getelementptr inbounds i32, ptr %107, i64 %109
  %111 = load i32, ptr %110, align 4
  %112 = call i32 @Abc_ResCost(ptr noundef %105, ptr noundef %106, i32 noundef %111, ptr noundef null, ptr noundef null)
  %113 = load ptr, ptr %7, align 8
  %114 = load ptr, ptr %8, align 8
  %115 = load ptr, ptr %10, align 8
  %116 = load i32, ptr %12, align 4
  %117 = sext i32 %116 to i64
  %118 = getelementptr inbounds i32, ptr %115, i64 %117
  %119 = load i32, ptr %118, align 4
  %120 = call i32 @Abc_ResCost(ptr noundef %113, ptr noundef %114, i32 noundef %119, ptr noundef null, ptr noundef null)
  %121 = add nsw i32 %112, %120
  store i32 %121, ptr %16, align 4
  %122 = load i32, ptr %16, align 4
  %123 = load i32, ptr %17, align 4
  %124 = icmp slt i32 %122, %123
  br i1 %124, label %125, label %139

125:                                              ; preds = %82
  %126 = load i32, ptr %17, align 4
  store i32 %126, ptr %16, align 4
  %127 = load ptr, ptr %10, align 8
  %128 = load i32, ptr %11, align 4
  %129 = sext i32 %128 to i64
  %130 = getelementptr inbounds i32, ptr %127, i64 %129
  %131 = load i32, ptr %130, align 4
  %132 = getelementptr inbounds [2 x i32], ptr %13, i64 0, i64 0
  store i32 %131, ptr %132, align 4
  %133 = load ptr, ptr %10, align 8
  %134 = load i32, ptr %12, align 4
  %135 = sext i32 %134 to i64
  %136 = getelementptr inbounds i32, ptr %133, i64 %135
  %137 = load i32, ptr %136, align 4
  %138 = getelementptr inbounds [2 x i32], ptr %13, i64 0, i64 1
  store i32 %137, ptr %138, align 4
  store i32 1, ptr %18, align 4
  br label %139

139:                                              ; preds = %125, %82
  %140 = load i32, ptr %14, align 4
  %141 = shl i32 1, %140
  %142 = load i32, ptr %15, align 4
  %143 = shl i32 1, %142
  %144 = or i32 %141, %143
  %145 = load ptr, ptr %10, align 8
  %146 = load i32, ptr %11, align 4
  %147 = sext i32 %146 to i64
  %148 = getelementptr inbounds i32, ptr %145, i64 %147
  %149 = load i32, ptr %148, align 4
  %150 = xor i32 %149, %144
  store i32 %150, ptr %148, align 4
  %151 = load i32, ptr %14, align 4
  %152 = shl i32 1, %151
  %153 = load i32, ptr %15, align 4
  %154 = shl i32 1, %153
  %155 = or i32 %152, %154
  %156 = load ptr, ptr %10, align 8
  %157 = load i32, ptr %12, align 4
  %158 = sext i32 %157 to i64
  %159 = getelementptr inbounds i32, ptr %156, i64 %158
  %160 = load i32, ptr %159, align 4
  %161 = xor i32 %160, %155
  store i32 %161, ptr %159, align 4
  br label %162

162:                                              ; preds = %139, %67
  br label %163

163:                                              ; preds = %162, %81
  %164 = load i32, ptr %15, align 4
  %165 = add nsw i32 %164, 1
  store i32 %165, ptr %15, align 4
  br label %63, !llvm.loop !24

166:                                              ; preds = %63
  br label %167

167:                                              ; preds = %166, %52
  br label %168

168:                                              ; preds = %167
  %169 = load i32, ptr %14, align 4
  %170 = add nsw i32 %169, 1
  store i32 %170, ptr %14, align 4
  br label %48, !llvm.loop !25

171:                                              ; preds = %48
  %172 = getelementptr inbounds [2 x i32], ptr %13, i64 0, i64 0
  %173 = load i32, ptr %172, align 4
  %174 = load ptr, ptr %10, align 8
  %175 = load i32, ptr %11, align 4
  %176 = sext i32 %175 to i64
  %177 = getelementptr inbounds i32, ptr %174, i64 %176
  store i32 %173, ptr %177, align 4
  %178 = getelementptr inbounds [2 x i32], ptr %13, i64 0, i64 1
  %179 = load i32, ptr %178, align 4
  %180 = load ptr, ptr %10, align 8
  %181 = load i32, ptr %12, align 4
  %182 = sext i32 %181 to i64
  %183 = getelementptr inbounds i32, ptr %180, i64 %182
  store i32 %179, ptr %183, align 4
  %184 = load i32, ptr %18, align 4
  ret i32 %184
}