; Function Attrs: nounwind uwtable
define range(i32 0, 2) i32 @Abc_ResMigrate(ptr noundef %0, ptr noundef %1, i32 noundef %2, ptr noundef captures(none) %3, i32 noundef %4, i32 noundef %5) local_unnamed_addr #0 {
  %7 = sext i32 %4 to i64
  %8 = getelementptr inbounds i32, ptr %3, i64 %7
  %9 = load i32, ptr %8, align 4
  %10 = sext i32 %5 to i64
  %11 = getelementptr inbounds i32, ptr %3, i64 %10
  %12 = load i32, ptr %11, align 4
  %13 = tail call i32 @Abc_ResCofCount(ptr noundef %0, ptr noundef %1, i32 noundef %9, ptr noundef null)
  %14 = icmp ult i32 %13, 2
  %15 = add i32 %13, -1
  %16 = tail call range(i32 0, 33) i32 @llvm.ctlz.i32(i32 %15, i1 true)
  %17 = sub nuw nsw i32 32, %16
  %.09.i.i = select i1 %14, i32 %13, i32 %17
  %18 = add nsw i32 %.09.i.i, -1
  %.neg.i = shl nsw i32 -1, %18
  %19 = add i32 %.neg.i, %13
  %20 = mul nsw i32 %19, %19
  %21 = load i32, ptr %11, align 4
  %22 = tail call i32 @Abc_ResCofCount(ptr noundef %0, ptr noundef %1, i32 noundef %21, ptr noundef null)
  %23 = icmp ult i32 %22, 2
  %24 = add i32 %22, -1
  %25 = tail call range(i32 0, 33) i32 @llvm.ctlz.i32(i32 %24, i1 true)
  %26 = sub nuw nsw i32 32, %25
  %.09.i.i65 = select i1 %23, i32 %22, i32 %26
  %27 = add nsw i32 %.09.i.i65, -1
  %.neg.i66 = shl nsw i32 -1, %27
  %28 = add i32 %.neg.i66, %22
  %29 = mul nsw i32 %28, %28
  %reass.add = add i32 %.09.i.i65, %.09.i.i
  %reass.mul = mul i32 %reass.add, 10000
  %30 = add i32 %reass.mul, %20
  %31 = add i32 %30, %29
  %32 = icmp sgt i32 %2, 0
  br i1 %32, label %.lr.ph84.split.us, label %._crit_edge

.lr.ph84.split.us:                                ; preds = %6, %..loopexit_crit_edge.us
  %.083.us = phi i32 [ %.4.us, %..loopexit_crit_edge.us ], [ 0, %6 ]
  %.sroa.3.082.us = phi i32 [ %.sroa.3.4.us, %..loopexit_crit_edge.us ], [ %12, %6 ]
  %.06280.us = phi i32 [ %76, %..loopexit_crit_edge.us ], [ 0, %6 ]
  %.sroa.0.079.us = phi i32 [ %.sroa.0.4.us, %..loopexit_crit_edge.us ], [ %9, %6 ]
  %33 = load i32, ptr %8, align 4
  %34 = shl nuw i32 1, %.06280.us
  %35 = and i32 %33, %34
  %.not.us = icmp eq i32 %35, 0
  br i1 %.not.us, label %..loopexit_crit_edge.us, label %.preheader.us.preheader

.preheader.us.preheader:                          ; preds = %.lr.ph84.split.us
  %.pre = load i32, ptr %11, align 4
  br label %.preheader.us

.preheader.us:                                    ; preds = %.preheader.us.preheader, %73
  %36 = phi i32 [ %74, %73 ], [ %.pre, %.preheader.us.preheader ]
  %.176.us = phi i32 [ %.2.us, %73 ], [ %.083.us, %.preheader.us.preheader ]
  %.sroa.3.175.us = phi i32 [ %.sroa.3.2.us, %73 ], [ %.sroa.3.082.us, %.preheader.us.preheader ]
  %.06174.us = phi i32 [ %75, %73 ], [ 0, %.preheader.us.preheader ]
  %.sroa.0.173.us = phi i32 [ %.sroa.0.2.us, %73 ], [ %.sroa.0.079.us, %.preheader.us.preheader ]
  %37 = shl nuw i32 1, %.06174.us
  %38 = and i32 %36, %37
  %.not64.us = icmp eq i32 %38, 0
  %39 = icmp eq i32 %.06280.us, %.06174.us
  %or.cond.us = or i1 %39, %.not64.us
  br i1 %or.cond.us, label %73, label %40

40:                                               ; preds = %.preheader.us
  %41 = or i32 %37, %34
  %42 = load i32, ptr %8, align 4
  %43 = xor i32 %42, %41
  store i32 %43, ptr %8, align 4
  %44 = load i32, ptr %11, align 4
  %45 = xor i32 %44, %41
  store i32 %45, ptr %11, align 4
  %46 = load i32, ptr %8, align 4
  %47 = tail call i32 @Abc_ResCofCount(ptr noundef %0, ptr noundef %1, i32 noundef %46, ptr noundef null)
  %48 = icmp ult i32 %47, 2
  %49 = add i32 %47, -1
  %50 = tail call range(i32 0, 33) i32 @llvm.ctlz.i32(i32 %49, i1 true)
  %51 = sub nuw nsw i32 32, %50
  %.09.i.i67.us = select i1 %48, i32 %47, i32 %51
  %52 = add nsw i32 %.09.i.i67.us, -1
  %.neg.i68.us = shl nsw i32 -1, %52
  %53 = add i32 %.neg.i68.us, %47
  %54 = mul nsw i32 %53, %53
  %55 = load i32, ptr %11, align 4
  %56 = tail call i32 @Abc_ResCofCount(ptr noundef %0, ptr noundef %1, i32 noundef %55, ptr noundef null)
  %57 = icmp ult i32 %56, 2
  %58 = add i32 %56, -1
  %59 = tail call range(i32 0, 33) i32 @llvm.ctlz.i32(i32 %58, i1 true)
  %60 = sub nuw nsw i32 32, %59
  %.09.i.i69.us = select i1 %57, i32 %56, i32 %60
  %61 = add nsw i32 %.09.i.i69.us, -1
  %.neg.i70.us = shl nsw i32 -1, %61
  %62 = add i32 %.neg.i70.us, %56
  %63 = mul nsw i32 %62, %62
  %reass.add71.us = add i32 %.09.i.i69.us, %.09.i.i67.us
  %reass.mul72.us = mul i32 %reass.add71.us, 10000
  %64 = add i32 %reass.mul72.us, %54
  %65 = add i32 %64, %63
  %66 = icmp slt i32 %65, %31
  %.pre91 = load i32, ptr %8, align 4
  br i1 %66, label %67, label %69

67:                                               ; preds = %40
  %68 = load i32, ptr %11, align 4
  br label %69

69:                                               ; preds = %67, %40
  %.sroa.0.3.us = phi i32 [ %.pre91, %67 ], [ %.sroa.0.173.us, %40 ]
  %.sroa.3.3.us = phi i32 [ %68, %67 ], [ %.sroa.3.175.us, %40 ]
  %.3.us = phi i32 [ 1, %67 ], [ %.176.us, %40 ]
  %70 = xor i32 %.pre91, %41
  store i32 %70, ptr %8, align 4
  %71 = load i32, ptr %11, align 4
  %72 = xor i32 %71, %41
  store i32 %72, ptr %11, align 4
  br label %73

73:                                               ; preds = %69, %.preheader.us
  %74 = phi i32 [ %72, %69 ], [ %36, %.preheader.us ]
  %.sroa.0.2.us = phi i32 [ %.sroa.0.3.us, %69 ], [ %.sroa.0.173.us, %.preheader.us ]
  %.sroa.3.2.us = phi i32 [ %.sroa.3.3.us, %69 ], [ %.sroa.3.175.us, %.preheader.us ]
  %.2.us = phi i32 [ %.3.us, %69 ], [ %.176.us, %.preheader.us ]
  %75 = add nuw nsw i32 %.06174.us, 1
  %exitcond.not = icmp eq i32 %75, %2
  br i1 %exitcond.not, label %..loopexit_crit_edge.us, label %.preheader.us, !llvm.loop !20

..loopexit_crit_edge.us:                          ; preds = %73, %.lr.ph84.split.us
  %.sroa.0.4.us = phi i32 [ %.sroa.0.079.us, %.lr.ph84.split.us ], [ %.sroa.0.2.us, %73 ]
  %.sroa.3.4.us = phi i32 [ %.sroa.3.082.us, %.lr.ph84.split.us ], [ %.sroa.3.2.us, %73 ]
  %.4.us = phi i32 [ %.083.us, %.lr.ph84.split.us ], [ %.2.us, %73 ]
  %76 = add nuw nsw i32 %.06280.us, 1
  %exitcond90.not = icmp eq i32 %76, %2
  br i1 %exitcond90.not, label %._crit_edge, label %.lr.ph84.split.us, !llvm.loop !21

._crit_edge:                                      ; preds = %..loopexit_crit_edge.us, %6
  %.sroa.0.0.lcssa = phi i32 [ %9, %6 ], [ %.sroa.0.4.us, %..loopexit_crit_edge.us ]
  %.sroa.3.0.lcssa = phi i32 [ %12, %6 ], [ %.sroa.3.4.us, %..loopexit_crit_edge.us ]
  %.0.lcssa = phi i32 [ 0, %6 ], [ %.4.us, %..loopexit_crit_edge.us ]
  store i32 %.sroa.0.0.lcssa, ptr %8, align 4
  store i32 %.sroa.3.0.lcssa, ptr %11, align 4
  ret i32 %.0.lcssa
}